; Function Attrs: mustprogress uwtable
define range(i32 0, 2) i32 @tiny_set_default_settings(ptr noundef writeonly %0) local_unnamed_addr #3 {
  %.not = icmp eq ptr %0, null
  br i1 %.not, label %2, label %5

2:                                                ; preds = %1
  %3 = tail call noundef nonnull align 8 dereferenceable(8) ptr @_ZStlsISt11char_traitsIcEERSt13basic_ostreamIcT_ES5_PKc(ptr noundef nonnull align 8 dereferenceable(8) @_ZSt4cout, ptr noundef nonnull @.str.34)
  %4 = tail call noundef nonnull align 8 dereferenceable(8) ptr @_ZNSolsEPFRSoS_E(ptr noundef nonnull align 8 dereferenceable(8) %3, ptr noundef nonnull @_ZSt4endlIcSt11char_traitsIcEERSt13basic_ostreamIT_T0_ES6_)
  br label %7

5:                                                ; preds = %1
  store <2 x double> <double 1.000000e-03, double 1.000000e-03>, ptr %0, align 8
  %6 = getelementptr inbounds i8, ptr %0, i64 16
  store <4 x i32> <i32 1000, i32 1, i32 1, i32 1>, ptr %6, align 8
  br label %7

7:                                                ; preds = %5, %2
  %.0 = phi i32 [ 0, %5 ], [ 1, %2 ]
  ret i32 %.0
}